target datalayout = "e-m:e-p270:32:32-p271:32:32-p272:64:64-i64:64-i128:128-f80:128-n8:16:32:64-S128"
target triple = "x86_64-pc-linux-gnu"

%struct.Abc_ZddMan_ = type { i32, i32, i32, i32, i32, i32, ptr, ptr, ptr, ptr, i32, i32, i64, ptr, ptr, ptr }

@.str.2 = private unnamed_addr constant [2 x i8] c"{\00", align 1
@.str.3 = private unnamed_addr constant [5 x i8] c" %2d\00", align 1
@.str.4 = private unnamed_addr constant [4 x i8] c" }\0A\00", align 1
@.str.7 = private unnamed_addr constant [2 x i8] c"\0A\00", align 1
@__const.Abc_ZddPrintTest.pSets = private unnamed_addr constant [3 x [5 x i32]] [[5 x i32] [i32 5, i32 0, i32 2, i32 10, i32 7], [5 x i32] [i32 3, i32 11, i32 10, i32 7, i32 2], [5 x i32] [i32 0, i32 2, i32 5, i32 10, i32 7]], align 16
@.str.8 = private unnamed_addr constant [16 x i8] c"Resulting set:\0A\00", align 1
@.str.9 = private unnamed_addr constant [26 x i8] c"Nodes = %d.   Path = %d.\0A\00", align 1

; Function Attrs: nounwind uwtable
define i32 @Abc_ZddCountNodes(ptr noundef %0, i32 noundef %1) #0 {
  %3 = alloca ptr, align 8
  %4 = alloca i32, align 4
  %5 = alloca i32, align 4
  store ptr %0, ptr %3, align 8, !tbaa !3
  store i32 %1, ptr %4, align 4, !tbaa !10
  call void @llvm.lifetime.start.p0(i64 4, ptr %5) #12
  %6 = load ptr, ptr %3, align 8, !tbaa !3
  %7 = load i32, ptr %4, align 4, !tbaa !10
  %8 = call i32 @Abc_ZddCount_rec(ptr noundef %6, i32 noundef %7)
  store i32 %8, ptr %5, align 4, !tbaa !10
  %9 = load ptr, ptr %3, align 8, !tbaa !3
  %10 = load i32, ptr %4, align 4, !tbaa !10
  call void @Abc_ZddUnmark_rec(ptr noundef %9, i32 noundef %10)
  %11 = load i32, ptr %5, align 4, !tbaa !10
  call void @llvm.lifetime.end.p0(i64 4, ptr %5) #12
  ret i32 %11
}

; Function Attrs: nounwind uwtable
define void @Abc_ZddPrint(ptr noundef %0, i32 noundef %1) #0 {
  %3 = alloca ptr, align 8
  %4 = alloca i32, align 4
  %5 = alloca ptr, align 8
  store ptr %0, ptr %3, align 8, !tbaa !3
  store i32 %1, ptr %4, align 4, !tbaa !10
  call void @llvm.lifetime.start.p0(i64 8, ptr %5) #12
  %6 = load ptr, ptr %3, align 8, !tbaa !3
  %7 = getelementptr inbounds nuw %struct.Abc_ZddMan_, ptr %6, i32 0, i32 0
  %8 = load i32, ptr %7, align 8, !tbaa !32
  %9 = sext i32 %8 to i64
  %10 = call noalias ptr @calloc(i64 noundef %9, i64 noundef 4) #13
  store ptr %10, ptr %5, align 8, !tbaa !8
  %11 = load ptr, ptr %3, align 8, !tbaa !3
  %12 = load i32, ptr %4, align 4, !tbaa !10
  %13 = load ptr, ptr %5, align 8, !tbaa !8
  call void @Abc_ZddPrint_rec(ptr noundef %11, i32 noundef %12, ptr noundef %13, i32 noundef 0)
  %14 = load ptr, ptr %5, align 8, !tbaa !8
  %15 = icmp ne ptr %14, null
  br i1 %15, label %16, label %18

16:                                               ; preds = %2
  %17 = load ptr, ptr %5, align 8, !tbaa !8
  call void @free(ptr noundef %17) #12
  store ptr null, ptr %5, align 8, !tbaa !8
  br label %19

18:                                               ; preds = %2
  br label %19

19:                                               ; preds = %18, %16
  call void @llvm.lifetime.end.p0(i64 8, ptr %5) #12
  ret void
}

; Function Attrs: nounwind uwtable
define void @Abc_ZddPermPrint(ptr noundef %0, i32 noundef %1) #0 {
  %3 = alloca ptr, align 8
  %4 = alloca i32, align 4
  %5 = alloca i32, align 4
  store ptr %0, ptr %3, align 8, !tbaa !8
  store i32 %1, ptr %4, align 4, !tbaa !10
  call void @llvm.lifetime.start.p0(i64 4, ptr %5) #12
  %6 = call i32 (ptr, ...) @printf(ptr noundef @.str.2)
  store i32 0, ptr %5, align 4, !tbaa !10
  br label %7

7:                                                ; preds = %18, %2
  %8 = load i32, ptr %5, align 4, !tbaa !10
  %9 = load i32, ptr %4, align 4, !tbaa !10
  %10 = icmp slt i32 %8, %9
  br i1 %10, label %11, label %21

11:                                               ; preds = %7
  %12 = load ptr, ptr %3, align 8, !tbaa !8
  %13 = load i32, ptr %5, align 4, !tbaa !10
  %14 = sext i32 %13 to i64
  %15 = getelementptr inbounds i32, ptr %12, i64 %14
  %16 = load i32, ptr %15, align 4, !tbaa !10
  %17 = call i32 (ptr, ...) @printf(ptr noundef @.str.3, i32 noundef %16)
  br label %18

18:                                               ; preds = %11
  %19 = load i32, ptr %5, align 4, !tbaa !10
  %20 = add nsw i32 %19, 1
  store i32 %20, ptr %5, align 4, !tbaa !10
  br label %7, !llvm.loop !60

21:                                               ; preds = %7
  %22 = call i32 (ptr, ...) @printf(ptr noundef @.str.4)
  call void @llvm.lifetime.end.p0(i64 4, ptr %5) #12
  ret void
}

; Function Attrs: nounwind uwtable
define void @Abc_ZddPrintTest(ptr noundef %0) #0 {
  %2 = alloca ptr, align 8
  %3 = alloca i32, align 4
  %4 = alloca i32, align 4
  %5 = alloca [3 x [5 x i32]], align 16
  %6 = alloca i32, align 4
  %7 = alloca i32, align 4
  %8 = alloca i32, align 4
  store ptr %0, ptr %2, align 8, !tbaa !3
  call void @llvm.lifetime.start.p0(i64 4, ptr %3) #12
  store i32 3, ptr %3, align 4, !tbaa !10
  call void @llvm.lifetime.start.p0(i64 4, ptr %4) #12
  store i32 5, ptr %4, align 4, !tbaa !10
  call void @llvm.lifetime.start.p0(i64 60, ptr %5) #12
  call void @llvm.memcpy.p0.p0.i64(ptr align 16 %5, ptr align 16 @__const.Abc_ZddPrintTest.pSets, i64 60, i1 false)
  call void @llvm.lifetime.start.p0(i64 4, ptr %6) #12
  call void @llvm.lifetime.start.p0(i64 4, ptr %7) #12
  call void @llvm.lifetime.start.p0(i64 4, ptr %8) #12
  store i32 0, ptr %8, align 4, !tbaa !10
  store i32 0, ptr %6, align 4, !tbaa !10
  br label %9

9:                                                ; preds = %30, %1
  %10 = load i32, ptr %6, align 4, !tbaa !10
  %11 = load i32, ptr %3, align 4, !tbaa !10
  %12 = icmp slt i32 %10, %11
  br i1 %12, label %13, label %33

13:                                               ; preds = %9
  %14 = load i32, ptr %6, align 4, !tbaa !10
  %15 = sext i32 %14 to i64
  %16 = getelementptr inbounds [3 x [5 x i32]], ptr %5, i64 0, i64 %15
  %17 = getelementptr inbounds [5 x i32], ptr %16, i64 0, i64 0
  %18 = load i32, ptr %4, align 4, !tbaa !10
  call void @Abc_ZddPermPrint(ptr noundef %17, i32 noundef %18)
  %19 = load ptr, ptr %2, align 8, !tbaa !3
  %20 = load i32, ptr %6, align 4, !tbaa !10
  %21 = sext i32 %20 to i64
  %22 = getelementptr inbounds [3 x [5 x i32]], ptr %5, i64 0, i64 %21
  %23 = getelementptr inbounds [5 x i32], ptr %22, i64 0, i64 0
  %24 = load i32, ptr %4, align 4, !tbaa !10
  %25 = call i32 @Abc_ZddBuildSet(ptr noundef %19, ptr noundef %23, i32 noundef %24)
  store i32 %25, ptr %7, align 4, !tbaa !10
  %26 = load ptr, ptr %2, align 8, !tbaa !3
  %27 = load i32, ptr %8, align 4, !tbaa !10
  %28 = load i32, ptr %7, align 4, !tbaa !10
  %29 = call i32 @Abc_ZddUnion(ptr noundef %26, i32 noundef %27, i32 noundef %28)
  store i32 %29, ptr %8, align 4, !tbaa !10
  br label %30

30:                                               ; preds = %13
  %31 = load i32, ptr %6, align 4, !tbaa !10
  %32 = add nsw i32 %31, 1
  store i32 %32, ptr %6, align 4, !tbaa !10
  br label %9, !llvm.loop !67

33:                                               ; preds = %9
  %34 = call i32 (ptr, ...) @printf(ptr noundef @.str.8)
  %35 = load ptr, ptr %2, align 8, !tbaa !3
  %36 = load i32, ptr %8, align 4, !tbaa !10
  call void @Abc_ZddPrint(ptr noundef %35, i32 noundef %36)
  %37 = call i32 (ptr, ...) @printf(ptr noundef @.str.7)
  %38 = load ptr, ptr %2, align 8, !tbaa !3
  %39 = load i32, ptr %8, align 4, !tbaa !10
  %40 = call i32 @Abc_ZddCountNodes(ptr noundef %38, i32 noundef %39)
  %41 = load ptr, ptr %2, align 8, !tbaa !3
  %42 = load i32, ptr %8, align 4, !tbaa !10
  %43 = call i32 @Abc_ZddCountPaths(ptr noundef %41, i32 noundef %42)
  %44 = call i32 (ptr, ...) @printf(ptr noundef @.str.9, i32 noundef %40, i32 noundef %43)
  store i32 0, ptr %4, align 4, !tbaa !10
  call void @llvm.lifetime.end.p0(i64 4, ptr %8) #12
  call void @llvm.lifetime.end.p0(i64 4, ptr %7) #12
  call void @llvm.lifetime.end.p0(i64 4, ptr %6) #12
  call void @llvm.lifetime.end.p0(i64 60, ptr %5) #12
  call void @llvm.lifetime.end.p0(i64 4, ptr %4) #12
  call void @llvm.lifetime.end.p0(i64 4, ptr %3) #12
  ret void
}