; Function Attrs: nounwind uwtable
define void @Abc_ZddPrintTest(ptr noundef %0) local_unnamed_addr #7 {
  %2 = alloca [3 x [5 x i32]], align 16
  call void @llvm.lifetime.start.p0(i64 60, ptr nonnull %2) #23
  call void @llvm.memcpy.p0.p0.i64(ptr noundef nonnull align 16 dereferenceable(60) %2, ptr noundef nonnull align 16 dereferenceable(60) @__const.Abc_ZddPrintTest.pSets, i64 60, i1 false)
  br label %3

3:                                                ; preds = %1, %Abc_ZddPermPrint.exit
  %indvars.iv = phi i64 [ 0, %1 ], [ %indvars.iv.next, %Abc_ZddPermPrint.exit ]
  %.018 = phi i32 [ 0, %1 ], [ %9, %Abc_ZddPermPrint.exit ]
  %4 = getelementptr inbounds nuw [3 x [5 x i32]], ptr %2, i64 0, i64 %indvars.iv
  %putchar.i = tail call i32 @putchar(i32 123)
  br label %.lr.ph.i

.lr.ph.i:                                         ; preds = %.lr.ph.i, %3
  %indvars.iv.i = phi i64 [ 0, %3 ], [ %indvars.iv.next.i, %.lr.ph.i ]
  %5 = getelementptr inbounds nuw i32, ptr %4, i64 %indvars.iv.i
  %6 = load i32, ptr %5, align 4, !tbaa !3
  %7 = tail call i32 (ptr, ...) @printf(ptr noundef nonnull dereferenceable(1) @.str.3, i32 noundef %6)
  %indvars.iv.next.i = add nuw nsw i64 %indvars.iv.i, 1
  %exitcond.not.i = icmp eq i64 %indvars.iv.next.i, 5
  br i1 %exitcond.not.i, label %Abc_ZddPermPrint.exit, label %.lr.ph.i, !llvm.loop !52

Abc_ZddPermPrint.exit:                            ; preds = %.lr.ph.i
  %puts.i = tail call i32 @puts(ptr nonnull dereferenceable(1) @str)
  %8 = call i32 @Abc_ZddBuildSet(ptr noundef %0, ptr noundef nonnull %4, i32 noundef 5)
  %9 = tail call i32 @Abc_ZddUnion(ptr noundef %0, i32 noundef %.018, i32 noundef %8)
  %indvars.iv.next = add nuw nsw i64 %indvars.iv, 1
  %exitcond.not = icmp eq i64 %indvars.iv.next, 3
  br i1 %exitcond.not, label %10, label %3, !llvm.loop !59

10:                                               ; preds = %Abc_ZddPermPrint.exit
  %puts = tail call i32 @puts(ptr nonnull dereferenceable(1) @str.1)
  %11 = load i32, ptr %0, align 8, !tbaa !29
  %12 = sext i32 %11 to i64
  %13 = tail call noalias ptr @calloc(i64 noundef %12, i64 noundef 4) #21
  tail call void @Abc_ZddPrint_rec(ptr noundef nonnull readonly %0, i32 noundef %9, ptr noundef %13, i32 noundef 0)
  %.not.i = icmp eq ptr %13, null
  br i1 %.not.i, label %Abc_ZddPrint.exit, label %14

14:                                               ; preds = %10
  tail call void @free(ptr noundef nonnull %13) #23
  br label %Abc_ZddPrint.exit

Abc_ZddPrint.exit:                                ; preds = %10, %14
  %putchar = tail call i32 @putchar(i32 10)
  %15 = tail call i32 @Abc_ZddCount_rec(ptr noundef nonnull readonly %0, i32 noundef %9)
  tail call void @Abc_ZddUnmark_rec(ptr noundef nonnull readonly %0, i32 noundef %9)
  %16 = tail call i32 @Abc_ZddCountPaths(ptr noundef nonnull %0, i32 noundef %9)
  %17 = tail call i32 (ptr, ...) @printf(ptr noundef nonnull dereferenceable(1) @.str.9, i32 noundef %15, i32 noundef %16)
  call void @llvm.lifetime.end.p0(i64 60, ptr nonnull %2) #23
  ret void
}